target datalayout = "e-m:e-p270:32:32-p271:32:32-p272:64:64-i64:64-i128:128-f80:128-n8:16:32:64-S128"
target triple = "x86_64-pc-linux-gnu"

@hf_dis_padding = internal global i32 0, align 4
@hf_dis_entity_id_site = internal global i32 0, align 4
@hf_dis_entity_id_application = internal global i32 0, align 4
@hf_dis_entity_id_entity = internal global i32 0, align 4
@hf_dis_entityKind = internal global i32 0, align 4
@hf_dis_entityDomain = internal global i32 0, align 4
@hf_dis_category = internal global i32 0, align 4
@hf_dis_subcategory = internal global i32 0, align 4
@hf_dis_specific = internal global i32 0, align 4
@hf_dis_extra = internal global i32 0, align 4
@hf_dis_country = internal global i32 0, align 4
@hf_dis_str_data = internal global i32 0, align 4
@hf_dis_vp_change_indicator = internal global i32 0, align 4
@hf_dis_vp_association_status = internal global i32 0, align 4
@hf_dis_vp_association_type = internal global i32 0, align 4
@hf_dis_vp_phys_conn_type = internal global i32 0, align 4
@hf_dis_vp_group_member_type = internal global i32 0, align 4
@hf_dis_vp_own_station_location = internal global i32 0, align 4
@hf_dis_vp_group_number = internal global i32 0, align 4
@hf_dis_vp_offset_type = internal global i32 0, align 4
@hf_dis_vp_offset_x = internal global i32 0, align 4
@hf_dis_vp_offset_y = internal global i32 0, align 4
@hf_dis_vp_offset_z = internal global i32 0, align 4
@hf_dis_vp_attached_indicator = internal global i32 0, align 4
@hf_dis_vp_part_attached_to_id = internal global i32 0, align 4
@hf_dis_vp_artic_param_type = internal global i32 0, align 4
@hf_dis_vp_change = internal global i32 0, align 4
@hf_dis_vp_parameter_value = internal global i32 0, align 4
@hf_dis_vp_padding = internal global i32 0, align 4
@ett_entity = internal global i32 0, align 4
@ett_entity_type = internal global i32 0, align 4
@ett_offset_vector = internal global i32 0, align 4
@.str.4058 = private unnamed_addr constant [10 x i8] c"Part Type\00", align 1
@.str.4059 = private unnamed_addr constant [7 x i8] c"Offset\00", align 1
@.str.4060 = private unnamed_addr constant [18 x i8] c"Object Identifier\00", align 1

; Function Attrs: nounwind uwtable
define internal i32 @parseField_Entity(ptr noundef %0, ptr noundef %1, i32 noundef %2, ptr noundef %3) #0 {
  %5 = alloca ptr, align 8
  %6 = alloca ptr, align 8
  %7 = alloca i32, align 4
  %8 = alloca ptr, align 8
  %9 = alloca ptr, align 8
  store ptr %0, ptr %5, align 8
  store ptr %1, ptr %6, align 8
  store i32 %2, ptr %7, align 4
  store ptr %3, ptr %8, align 8
  %10 = load ptr, ptr %6, align 8
  %11 = load ptr, ptr %5, align 8
  %12 = load i32, ptr %7, align 4
  %13 = load i32, ptr @ett_entity, align 4
  %14 = load ptr, ptr %8, align 8
  %15 = call ptr @proto_tree_add_subtree(ptr noundef %10, ptr noundef %11, i32 noundef %12, i32 noundef 6, i32 noundef %13, ptr noundef null, ptr noundef %14)
  store ptr %15, ptr %9, align 8
  %16 = load ptr, ptr %9, align 8
  %17 = load i32, ptr @hf_dis_entity_id_site, align 4
  %18 = load ptr, ptr %5, align 8
  %19 = load i32, ptr %7, align 4
  %20 = call ptr @proto_tree_add_item(ptr noundef %16, i32 noundef %17, ptr noundef %18, i32 noundef %19, i32 noundef 2, i32 noundef 0)
  %21 = load i32, ptr %7, align 4
  %22 = add i32 %21, 2
  store i32 %22, ptr %7, align 4
  %23 = load ptr, ptr %9, align 8
  %24 = load i32, ptr @hf_dis_entity_id_application, align 4
  %25 = load ptr, ptr %5, align 8
  %26 = load i32, ptr %7, align 4
  %27 = call ptr @proto_tree_add_item(ptr noundef %23, i32 noundef %24, ptr noundef %25, i32 noundef %26, i32 noundef 2, i32 noundef 0)
  %28 = load i32, ptr %7, align 4
  %29 = add i32 %28, 2
  store i32 %29, ptr %7, align 4
  %30 = load ptr, ptr %9, align 8
  %31 = load i32, ptr @hf_dis_entity_id_entity, align 4
  %32 = load ptr, ptr %5, align 8
  %33 = load i32, ptr %7, align 4
  %34 = call ptr @proto_tree_add_item(ptr noundef %30, i32 noundef %31, ptr noundef %32, i32 noundef %33, i32 noundef 2, i32 noundef 0)
  %35 = load i32, ptr %7, align 4
  %36 = add i32 %35, 2
  store i32 %36, ptr %7, align 4
  %37 = load i32, ptr %7, align 4
  ret i32 %37
}

; Function Attrs: nounwind uwtable
define internal i32 @dissect_DIS_FIELDS_ENTITY_TYPE(ptr noundef %0, ptr noundef %1, i32 noundef %2, ptr noundef %3) #0 {
  %5 = alloca ptr, align 8
  %6 = alloca ptr, align 8
  %7 = alloca i32, align 4
  %8 = alloca ptr, align 8
  store ptr %0, ptr %5, align 8
  store ptr %1, ptr %6, align 8
  store i32 %2, ptr %7, align 4
  store ptr %3, ptr %8, align 8
  %9 = load ptr, ptr %5, align 8
  %10 = load ptr, ptr %6, align 8
  %11 = load i32, ptr %7, align 4
  %12 = load ptr, ptr %8, align 8
  %13 = load i32, ptr @ett_entity_type, align 4
  %14 = load i32, ptr @hf_dis_entityKind, align 4
  %15 = load i32, ptr @hf_dis_entityDomain, align 4
  %16 = load i32, ptr @hf_dis_country, align 4
  %17 = load i32, ptr @hf_dis_category, align 4
  %18 = load i32, ptr @hf_dis_subcategory, align 4
  %19 = load i32, ptr @hf_dis_specific, align 4
  %20 = load i32, ptr @hf_dis_extra, align 4
  %21 = call i32 @dissect_DIS_FIELDS_ENTITY_TYPE_RECORD(ptr noundef %9, ptr noundef %10, i32 noundef %11, ptr noundef %12, i32 noundef %13, i32 noundef %14, i32 noundef %15, i32 noundef %16, i32 noundef %17, i32 noundef %18, i32 noundef %19, i32 noundef %20)
  ret i32 %21
}

; Function Attrs: nounwind uwtable
define internal i32 @dissect_DIS_FIELDS_VP_ENTITY_ASSOCIATION(ptr noundef %0, ptr noundef %1, i32 noundef %2) #0 {
  %4 = alloca ptr, align 8
  %5 = alloca ptr, align 8
  %6 = alloca i32, align 4
  store ptr %0, ptr %4, align 8
  store ptr %1, ptr %5, align 8
  store i32 %2, ptr %6, align 4
  %7 = load ptr, ptr %5, align 8
  %8 = load i32, ptr @hf_dis_vp_change_indicator, align 4
  %9 = load ptr, ptr %4, align 8
  %10 = load i32, ptr %6, align 4
  %11 = call ptr @proto_tree_add_item(ptr noundef %7, i32 noundef %8, ptr noundef %9, i32 noundef %10, i32 noundef 1, i32 noundef 0)
  %12 = load i32, ptr %6, align 4
  %13 = add i32 %12, 1
  store i32 %13, ptr %6, align 4
  %14 = load ptr, ptr %5, align 8
  %15 = load i32, ptr @hf_dis_vp_association_status, align 4
  %16 = load ptr, ptr %4, align 8
  %17 = load i32, ptr %6, align 4
  %18 = call ptr @proto_tree_add_item(ptr noundef %14, i32 noundef %15, ptr noundef %16, i32 noundef %17, i32 noundef 1, i32 noundef 0)
  %19 = load i32, ptr %6, align 4
  %20 = add i32 %19, 1
  store i32 %20, ptr %6, align 4
  %21 = load ptr, ptr %5, align 8
  %22 = load i32, ptr @hf_dis_vp_association_type, align 4
  %23 = load ptr, ptr %4, align 8
  %24 = load i32, ptr %6, align 4
  %25 = call ptr @proto_tree_add_item(ptr noundef %21, i32 noundef %22, ptr noundef %23, i32 noundef %24, i32 noundef 1, i32 noundef 0)
  %26 = load i32, ptr %6, align 4
  %27 = add i32 %26, 1
  store i32 %27, ptr %6, align 4
  %28 = load ptr, ptr %4, align 8
  %29 = load ptr, ptr %5, align 8
  %30 = load i32, ptr %6, align 4
  %31 = call i32 @parseField_Entity(ptr noundef %28, ptr noundef %29, i32 noundef %30, ptr noundef @.str.4060)
  store i32 %31, ptr %6, align 4
  %32 = load ptr, ptr %5, align 8
  %33 = load i32, ptr @hf_dis_vp_own_station_location, align 4
  %34 = load ptr, ptr %4, align 8
  %35 = load i32, ptr %6, align 4
  %36 = call ptr @proto_tree_add_item(ptr noundef %32, i32 noundef %33, ptr noundef %34, i32 noundef %35, i32 noundef 2, i32 noundef 0)
  %37 = load i32, ptr %6, align 4
  %38 = add i32 %37, 2
  store i32 %38, ptr %6, align 4
  %39 = load ptr, ptr %5, align 8
  %40 = load i32, ptr @hf_dis_vp_phys_conn_type, align 4
  %41 = load ptr, ptr %4, align 8
  %42 = load i32, ptr %6, align 4
  %43 = call ptr @proto_tree_add_item(ptr noundef %39, i32 noundef %40, ptr noundef %41, i32 noundef %42, i32 noundef 1, i32 noundef 0)
  %44 = load i32, ptr %6, align 4
  %45 = add i32 %44, 1
  store i32 %45, ptr %6, align 4
  %46 = load ptr, ptr %5, align 8
  %47 = load i32, ptr @hf_dis_vp_group_member_type, align 4
  %48 = load ptr, ptr %4, align 8
  %49 = load i32, ptr %6, align 4
  %50 = call ptr @proto_tree_add_item(ptr noundef %46, i32 noundef %47, ptr noundef %48, i32 noundef %49, i32 noundef 1, i32 noundef 0)
  %51 = load i32, ptr %6, align 4
  %52 = add i32 %51, 1
  store i32 %52, ptr %6, align 4
  %53 = load ptr, ptr %5, align 8
  %54 = load i32, ptr @hf_dis_vp_group_number, align 4
  %55 = load ptr, ptr %4, align 8
  %56 = load i32, ptr %6, align 4
  %57 = call ptr @proto_tree_add_item(ptr noundef %53, i32 noundef %54, ptr noundef %55, i32 noundef %56, i32 noundef 2, i32 noundef 0)
  %58 = load i32, ptr %6, align 4
  %59 = add i32 %58, 2
  store i32 %59, ptr %6, align 4
  %60 = load i32, ptr %6, align 4
  ret i32 %60
}

; Function Attrs: nounwind uwtable
define internal i32 @dissect_DIS_FIELDS_VP_ENTITY_OFFSET(ptr noundef %0, ptr noundef %1, i32 noundef %2) #0 {
  %4 = alloca ptr, align 8
  %5 = alloca ptr, align 8
  %6 = alloca i32, align 4
  %7 = alloca ptr, align 8
  store ptr %0, ptr %4, align 8
  store ptr %1, ptr %5, align 8
  store i32 %2, ptr %6, align 4
  %8 = load ptr, ptr %5, align 8
  %9 = load i32, ptr @hf_dis_vp_offset_type, align 4
  %10 = load ptr, ptr %4, align 8
  %11 = load i32, ptr %6, align 4
  %12 = call ptr @proto_tree_add_item(ptr noundef %8, i32 noundef %9, ptr noundef %10, i32 noundef %11, i32 noundef 1, i32 noundef 0)
  %13 = load i32, ptr %6, align 4
  %14 = add i32 %13, 1
  store i32 %14, ptr %6, align 4
  %15 = load ptr, ptr %5, align 8
  %16 = load i32, ptr @hf_dis_padding, align 4
  %17 = load ptr, ptr %4, align 8
  %18 = load i32, ptr %6, align 4
  %19 = call ptr @proto_tree_add_item(ptr noundef %15, i32 noundef %16, ptr noundef %17, i32 noundef %18, i32 noundef 2, i32 noundef 0)
  %20 = load i32, ptr %6, align 4
  %21 = add i32 %20, 2
  store i32 %21, ptr %6, align 4
  %22 = load ptr, ptr %5, align 8
  %23 = load ptr, ptr %4, align 8
  %24 = load i32, ptr %6, align 4
  %25 = load i32, ptr @ett_offset_vector, align 4
  %26 = call ptr @proto_tree_add_subtree(ptr noundef %22, ptr noundef %23, i32 noundef %24, i32 noundef 12, i32 noundef %25, ptr noundef null, ptr noundef @.str.4059)
  store ptr %26, ptr %7, align 8
  %27 = load ptr, ptr %7, align 8
  %28 = load i32, ptr @hf_dis_vp_offset_x, align 4
  %29 = load ptr, ptr %4, align 8
  %30 = load i32, ptr %6, align 4
  %31 = call ptr @proto_tree_add_item(ptr noundef %27, i32 noundef %28, ptr noundef %29, i32 noundef %30, i32 noundef 4, i32 noundef 0)
  %32 = load i32, ptr %6, align 4
  %33 = add i32 %32, 4
  store i32 %33, ptr %6, align 4
  %34 = load ptr, ptr %7, align 8
  %35 = load i32, ptr @hf_dis_vp_offset_y, align 4
  %36 = load ptr, ptr %4, align 8
  %37 = load i32, ptr %6, align 4
  %38 = call ptr @proto_tree_add_item(ptr noundef %34, i32 noundef %35, ptr noundef %36, i32 noundef %37, i32 noundef 4, i32 noundef 0)
  %39 = load i32, ptr %6, align 4
  %40 = add i32 %39, 4
  store i32 %40, ptr %6, align 4
  %41 = load ptr, ptr %7, align 8
  %42 = load i32, ptr @hf_dis_vp_offset_z, align 4
  %43 = load ptr, ptr %4, align 8
  %44 = load i32, ptr %6, align 4
  %45 = call ptr @proto_tree_add_item(ptr noundef %41, i32 noundef %42, ptr noundef %43, i32 noundef %44, i32 noundef 4, i32 noundef 0)
  %46 = load i32, ptr %6, align 4
  %47 = add i32 %46, 4
  store i32 %47, ptr %6, align 4
  %48 = load i32, ptr %6, align 4
  ret i32 %48
}

; Function Attrs: nounwind uwtable
define internal i32 @dissect_DIS_FIELDS_VP_ATTACHED_PART(ptr noundef %0, ptr noundef %1, i32 noundef %2) #0 {
  %4 = alloca ptr, align 8
  %5 = alloca ptr, align 8
  %6 = alloca i32, align 4
  store ptr %0, ptr %4, align 8
  store ptr %1, ptr %5, align 8
  store i32 %2, ptr %6, align 4
  %7 = load ptr, ptr %5, align 8
  %8 = load i32, ptr @hf_dis_vp_attached_indicator, align 4
  %9 = load ptr, ptr %4, align 8
  %10 = load i32, ptr %6, align 4
  %11 = call ptr @proto_tree_add_item(ptr noundef %7, i32 noundef %8, ptr noundef %9, i32 noundef %10, i32 noundef 1, i32 noundef 0)
  %12 = load i32, ptr %6, align 4
  %13 = add i32 %12, 1
  store i32 %13, ptr %6, align 4
  %14 = load ptr, ptr %5, align 8
  %15 = load i32, ptr @hf_dis_vp_part_attached_to_id, align 4
  %16 = load ptr, ptr %4, align 8
  %17 = load i32, ptr %6, align 4
  %18 = call ptr @proto_tree_add_item(ptr noundef %14, i32 noundef %15, ptr noundef %16, i32 noundef %17, i32 noundef 2, i32 noundef 0)
  %19 = load i32, ptr %6, align 4
  %20 = add i32 %19, 2
  store i32 %20, ptr %6, align 4
  %21 = load ptr, ptr %5, align 8
  %22 = load i32, ptr @hf_dis_vp_artic_param_type, align 4
  %23 = load ptr, ptr %4, align 8
  %24 = load i32, ptr %6, align 4
  %25 = call ptr @proto_tree_add_item(ptr noundef %21, i32 noundef %22, ptr noundef %23, i32 noundef %24, i32 noundef 4, i32 noundef 0)
  %26 = load i32, ptr %6, align 4
  %27 = add i32 %26, 4
  store i32 %27, ptr %6, align 4
  %28 = load ptr, ptr %4, align 8
  %29 = load ptr, ptr %5, align 8
  %30 = load i32, ptr %6, align 4
  %31 = call i32 @dissect_DIS_FIELDS_ENTITY_TYPE(ptr noundef %28, ptr noundef %29, i32 noundef %30, ptr noundef @.str.4058)
  store i32 %31, ptr %6, align 4
  %32 = load i32, ptr %6, align 4
  ret i32 %32
}

; Function Attrs: nounwind uwtable
define internal i32 @dissect_DIS_FIELDS_VP_ARTICULATED_PART(ptr noundef %0, ptr noundef %1, i32 noundef %2) #0 {
  %4 = alloca ptr, align 8
  %5 = alloca ptr, align 8
  %6 = alloca i32, align 4
  store ptr %0, ptr %4, align 8
  store ptr %1, ptr %5, align 8
  store i32 %2, ptr %6, align 4
  %7 = load ptr, ptr %5, align 8
  %8 = load i32, ptr @hf_dis_vp_change, align 4
  %9 = load ptr, ptr %4, align 8
  %10 = load i32, ptr %6, align 4
  %11 = call ptr @proto_tree_add_item(ptr noundef %7, i32 noundef %8, ptr noundef %9, i32 noundef %10, i32 noundef 1, i32 noundef 0)
  %12 = load i32, ptr %6, align 4
  %13 = add i32 %12, 1
  store i32 %13, ptr %6, align 4
  %14 = load ptr, ptr %5, align 8
  %15 = load i32, ptr @hf_dis_vp_part_attached_to_id, align 4
  %16 = load ptr, ptr %4, align 8
  %17 = load i32, ptr %6, align 4
  %18 = call ptr @proto_tree_add_item(ptr noundef %14, i32 noundef %15, ptr noundef %16, i32 noundef %17, i32 noundef 2, i32 noundef 0)
  %19 = load i32, ptr %6, align 4
  %20 = add i32 %19, 2
  store i32 %20, ptr %6, align 4
  %21 = load ptr, ptr %5, align 8
  %22 = load i32, ptr @hf_dis_vp_artic_param_type, align 4
  %23 = load ptr, ptr %4, align 8
  %24 = load i32, ptr %6, align 4
  %25 = call ptr @proto_tree_add_item(ptr noundef %21, i32 noundef %22, ptr noundef %23, i32 noundef %24, i32 noundef 4, i32 noundef 0)
  %26 = load i32, ptr %6, align 4
  %27 = add i32 %26, 4
  store i32 %27, ptr %6, align 4
  %28 = load ptr, ptr %5, align 8
  %29 = load i32, ptr @hf_dis_vp_parameter_value, align 4
  %30 = load ptr, ptr %4, align 8
  %31 = load i32, ptr %6, align 4
  %32 = call ptr @proto_tree_add_item(ptr noundef %28, i32 noundef %29, ptr noundef %30, i32 noundef %31, i32 noundef 4, i32 noundef 0)
  %33 = load i32, ptr %6, align 4
  %34 = add i32 %33, 4
  store i32 %34, ptr %6, align 4
  %35 = load ptr, ptr %5, align 8
  %36 = load i32, ptr @hf_dis_vp_padding, align 4
  %37 = load ptr, ptr %4, align 8
  %38 = load i32, ptr %6, align 4
  %39 = call ptr @proto_tree_add_item(ptr noundef %35, i32 noundef %36, ptr noundef %37, i32 noundef %38, i32 noundef 4, i32 noundef 0)
  %40 = load i32, ptr %6, align 4
  %41 = add i32 %40, 4
  store i32 %41, ptr %6, align 4
  %42 = load i32, ptr %6, align 4
  ret i32 %42
}

; Function Attrs: nounwind uwtable
define internal i32 @parseField_VariableParameter(ptr noundef %0, ptr noundef %1, i32 noundef %2, i8 noundef zeroext %3) #0 {
  %5 = alloca ptr, align 8
  %6 = alloca ptr, align 8
  %7 = alloca i32, align 4
  %8 = alloca i8, align 1
  store ptr %0, ptr %5, align 8
  store ptr %1, ptr %6, align 8
  store i32 %2, ptr %7, align 4
  store i8 %3, ptr %8, align 1
  %9 = load i8, ptr %8, align 1
  %10 = zext i8 %9 to i32
  switch i32 %10, label %31 [
    i32 0, label %11
    i32 1, label %16
    i32 25, label %21
    i32 4, label %26
  ]

11:                                               ; preds = %4
  %12 = load ptr, ptr %5, align 8
  %13 = load ptr, ptr %6, align 8
  %14 = load i32, ptr %7, align 4
  %15 = call i32 @dissect_DIS_FIELDS_VP_ARTICULATED_PART(ptr noundef %12, ptr noundef %13, i32 noundef %14)
  store i32 %15, ptr %7, align 4
  br label %39

16:                                               ; preds = %4
  %17 = load ptr, ptr %5, align 8
  %18 = load ptr, ptr %6, align 8
  %19 = load i32, ptr %7, align 4
  %20 = call i32 @dissect_DIS_FIELDS_VP_ATTACHED_PART(ptr noundef %17, ptr noundef %18, i32 noundef %19)
  store i32 %20, ptr %7, align 4
  br label %39

21:                                               ; preds = %4
  %22 = load ptr, ptr %5, align 8
  %23 = load ptr, ptr %6, align 8
  %24 = load i32, ptr %7, align 4
  %25 = call i32 @dissect_DIS_FIELDS_VP_ENTITY_OFFSET(ptr noundef %22, ptr noundef %23, i32 noundef %24)
  store i32 %25, ptr %7, align 4
  br label %39

26:                                               ; preds = %4
  %27 = load ptr, ptr %5, align 8
  %28 = load ptr, ptr %6, align 8
  %29 = load i32, ptr %7, align 4
  %30 = call i32 @dissect_DIS_FIELDS_VP_ENTITY_ASSOCIATION(ptr noundef %27, ptr noundef %28, i32 noundef %29)
  store i32 %30, ptr %7, align 4
  br label %39

31:                                               ; preds = %4
  %32 = load ptr, ptr %6, align 8
  %33 = load i32, ptr @hf_dis_str_data, align 4
  %34 = load ptr, ptr %5, align 8
  %35 = load i32, ptr %7, align 4
  %36 = call ptr @proto_tree_add_item(ptr noundef %32, i32 noundef %33, ptr noundef %34, i32 noundef %35, i32 noundef 15, i32 noundef 0)
  %37 = load i32, ptr %7, align 4
  %38 = add i32 %37, 15
  store i32 %38, ptr %7, align 4
  br label %39

39:                                               ; preds = %31, %26, %21, %16, %11
  %40 = load i32, ptr %7, align 4
  ret i32 %40
}