; Function Attrs: nounwind uwtable
define internal fastcc noundef i32 @parseField_VariableParameter(ptr noundef %0, ptr noundef %1, i32 noundef %2, i8 noundef zeroext %3) unnamed_addr #0 {
  switch i8 %3, label %91 [
    i8 0, label %5
    i8 1, label %21
    i8 25, label %40
    i8 4, label %58
  ]

5:                                                ; preds = %4
  %6 = load i32, ptr @hf_dis_vp_change, align 4
  %7 = tail call ptr @proto_tree_add_item(ptr noundef %1, i32 noundef %6, ptr noundef %0, i32 noundef %2, i32 noundef 1, i32 noundef 0) #4
  %8 = add i32 %2, 1
  %9 = load i32, ptr @hf_dis_vp_part_attached_to_id, align 4
  %10 = tail call ptr @proto_tree_add_item(ptr noundef %1, i32 noundef %9, ptr noundef %0, i32 noundef %8, i32 noundef 2, i32 noundef 0) #4
  %11 = add i32 %2, 3
  %12 = load i32, ptr @hf_dis_vp_artic_param_type, align 4
  %13 = tail call ptr @proto_tree_add_item(ptr noundef %1, i32 noundef %12, ptr noundef %0, i32 noundef %11, i32 noundef 4, i32 noundef 0) #4
  %14 = add i32 %2, 7
  %15 = load i32, ptr @hf_dis_vp_parameter_value, align 4
  %16 = tail call ptr @proto_tree_add_item(ptr noundef %1, i32 noundef %15, ptr noundef %0, i32 noundef %14, i32 noundef 4, i32 noundef 0) #4
  %17 = add i32 %2, 11
  %18 = load i32, ptr @hf_dis_vp_padding, align 4
  %19 = tail call ptr @proto_tree_add_item(ptr noundef %1, i32 noundef %18, ptr noundef %0, i32 noundef %17, i32 noundef 4, i32 noundef 0) #4
  %20 = add i32 %2, 15
  br label %95

21:                                               ; preds = %4
  %22 = load i32, ptr @hf_dis_vp_attached_indicator, align 4
  %23 = tail call ptr @proto_tree_add_item(ptr noundef %1, i32 noundef %22, ptr noundef %0, i32 noundef %2, i32 noundef 1, i32 noundef 0) #4
  %24 = add i32 %2, 1
  %25 = load i32, ptr @hf_dis_vp_part_attached_to_id, align 4
  %26 = tail call ptr @proto_tree_add_item(ptr noundef %1, i32 noundef %25, ptr noundef %0, i32 noundef %24, i32 noundef 2, i32 noundef 0) #4
  %27 = add i32 %2, 3
  %28 = load i32, ptr @hf_dis_vp_artic_param_type, align 4
  %29 = tail call ptr @proto_tree_add_item(ptr noundef %1, i32 noundef %28, ptr noundef %0, i32 noundef %27, i32 noundef 4, i32 noundef 0) #4
  %30 = add i32 %2, 7
  %31 = load i32, ptr @ett_entity_type, align 4
  %32 = load i32, ptr @hf_dis_entityKind, align 4
  %33 = load i32, ptr @hf_dis_entityDomain, align 4
  %34 = load i32, ptr @hf_dis_country, align 4
  %35 = load i32, ptr @hf_dis_category, align 4
  %36 = load i32, ptr @hf_dis_subcategory, align 4
  %37 = load i32, ptr @hf_dis_specific, align 4
  %38 = load i32, ptr @hf_dis_extra, align 4
  %39 = tail call fastcc noundef i32 @dissect_DIS_FIELDS_ENTITY_TYPE_RECORD(ptr noundef %0, ptr noundef %1, i32 noundef %30, ptr noundef nonnull @.str.4058, i32 noundef %31, i32 noundef %32, i32 noundef %33, i32 noundef %34, i32 noundef %35, i32 noundef %36, i32 noundef %37, i32 noundef %38)
  br label %95

40:                                               ; preds = %4
  %41 = load i32, ptr @hf_dis_vp_offset_type, align 4
  %42 = tail call ptr @proto_tree_add_item(ptr noundef %1, i32 noundef %41, ptr noundef %0, i32 noundef %2, i32 noundef 1, i32 noundef 0) #4
  %43 = add i32 %2, 1
  %44 = load i32, ptr @hf_dis_padding, align 4
  %45 = tail call ptr @proto_tree_add_item(ptr noundef %1, i32 noundef %44, ptr noundef %0, i32 noundef %43, i32 noundef 2, i32 noundef 0) #4
  %46 = add i32 %2, 3
  %47 = load i32, ptr @ett_offset_vector, align 4
  %48 = tail call ptr @proto_tree_add_subtree(ptr noundef %1, ptr noundef %0, i32 noundef %46, i32 noundef 12, i32 noundef %47, ptr noundef null, ptr noundef nonnull @.str.4059) #4
  %49 = load i32, ptr @hf_dis_vp_offset_x, align 4
  %50 = tail call ptr @proto_tree_add_item(ptr noundef %48, i32 noundef %49, ptr noundef %0, i32 noundef %46, i32 noundef 4, i32 noundef 0) #4
  %51 = add i32 %2, 7
  %52 = load i32, ptr @hf_dis_vp_offset_y, align 4
  %53 = tail call ptr @proto_tree_add_item(ptr noundef %48, i32 noundef %52, ptr noundef %0, i32 noundef %51, i32 noundef 4, i32 noundef 0) #4
  %54 = add i32 %2, 11
  %55 = load i32, ptr @hf_dis_vp_offset_z, align 4
  %56 = tail call ptr @proto_tree_add_item(ptr noundef %48, i32 noundef %55, ptr noundef %0, i32 noundef %54, i32 noundef 4, i32 noundef 0) #4
  %57 = add i32 %2, 15
  br label %95

58:                                               ; preds = %4
  %59 = load i32, ptr @hf_dis_vp_change_indicator, align 4
  %60 = tail call ptr @proto_tree_add_item(ptr noundef %1, i32 noundef %59, ptr noundef %0, i32 noundef %2, i32 noundef 1, i32 noundef 0) #4
  %61 = add i32 %2, 1
  %62 = load i32, ptr @hf_dis_vp_association_status, align 4
  %63 = tail call ptr @proto_tree_add_item(ptr noundef %1, i32 noundef %62, ptr noundef %0, i32 noundef %61, i32 noundef 1, i32 noundef 0) #4
  %64 = add i32 %2, 2
  %65 = load i32, ptr @hf_dis_vp_association_type, align 4
  %66 = tail call ptr @proto_tree_add_item(ptr noundef %1, i32 noundef %65, ptr noundef %0, i32 noundef %64, i32 noundef 1, i32 noundef 0) #4
  %67 = add i32 %2, 3
  %68 = load i32, ptr @ett_entity, align 4
  %69 = tail call ptr @proto_tree_add_subtree(ptr noundef %1, ptr noundef %0, i32 noundef %67, i32 noundef 6, i32 noundef %68, ptr noundef null, ptr noundef nonnull @.str.4060) #4
  %70 = load i32, ptr @hf_dis_entity_id_site, align 4
  %71 = tail call ptr @proto_tree_add_item(ptr noundef %69, i32 noundef %70, ptr noundef %0, i32 noundef %67, i32 noundef 2, i32 noundef 0) #4
  %72 = add i32 %2, 5
  %73 = load i32, ptr @hf_dis_entity_id_application, align 4
  %74 = tail call ptr @proto_tree_add_item(ptr noundef %69, i32 noundef %73, ptr noundef %0, i32 noundef %72, i32 noundef 2, i32 noundef 0) #4
  %75 = add i32 %2, 7
  %76 = load i32, ptr @hf_dis_entity_id_entity, align 4
  %77 = tail call ptr @proto_tree_add_item(ptr noundef %69, i32 noundef %76, ptr noundef %0, i32 noundef %75, i32 noundef 2, i32 noundef 0) #4
  %78 = add i32 %2, 9
  %79 = load i32, ptr @hf_dis_vp_own_station_location, align 4
  %80 = tail call ptr @proto_tree_add_item(ptr noundef %1, i32 noundef %79, ptr noundef %0, i32 noundef %78, i32 noundef 2, i32 noundef 0) #4
  %81 = add i32 %2, 11
  %82 = load i32, ptr @hf_dis_vp_phys_conn_type, align 4
  %83 = tail call ptr @proto_tree_add_item(ptr noundef %1, i32 noundef %82, ptr noundef %0, i32 noundef %81, i32 noundef 1, i32 noundef 0) #4
  %84 = add i32 %2, 12
  %85 = load i32, ptr @hf_dis_vp_group_member_type, align 4
  %86 = tail call ptr @proto_tree_add_item(ptr noundef %1, i32 noundef %85, ptr noundef %0, i32 noundef %84, i32 noundef 1, i32 noundef 0) #4
  %87 = add i32 %2, 13
  %88 = load i32, ptr @hf_dis_vp_group_number, align 4
  %89 = tail call ptr @proto_tree_add_item(ptr noundef %1, i32 noundef %88, ptr noundef %0, i32 noundef %87, i32 noundef 2, i32 noundef 0) #4
  %90 = add i32 %2, 15
  br label %95

91:                                               ; preds = %4
  %92 = load i32, ptr @hf_dis_str_data, align 4
  %93 = tail call ptr @proto_tree_add_item(ptr noundef %1, i32 noundef %92, ptr noundef %0, i32 noundef %2, i32 noundef 15, i32 noundef 0) #4
  %94 = add i32 %2, 15
  br label %95

95:                                               ; preds = %91, %58, %40, %21, %5
  %.0 = phi i32 [ %94, %91 ], [ %90, %58 ], [ %57, %40 ], [ %39, %21 ], [ %20, %5 ]
  ret i32 %.0
}